target datalayout = "e-m:e-p270:32:32-p271:32:32-p272:64:64-i64:64-i128:128-f80:128-n8:16:32:64-S128"
target triple = "x86_64-pc-linux-gnu"

%class.LibRaw = type { ptr, %struct.libraw_data_t, ptr, %struct.libraw_internal_data_t, [2048 x %struct.decode], ptr, ptr, [10 x %struct.tiff_ifd_t], %class.libraw_memmgr, %struct.libraw_callbacks_t, { i64, i64 }, { i64, i64 }, { i64, i64 }, ptr, ptr, ptr, i64, ptr, ptr, ptr, ptr }
%struct.libraw_data_t = type { ptr, %struct.libraw_image_sizes_t, %struct.libraw_iparams_t, %struct.libraw_lensinfo_t, %struct.libraw_makernotes_t, %struct.libraw_shootinginfo_t, %struct.libraw_output_params_t, %struct.libraw_raw_unpack_params_t, i32, i32, %struct.libraw_colordata_t, %struct.libraw_imgother_t, %struct.libraw_thumbnail_t, %struct.libraw_thumbnail_list_t, %struct.libraw_rawdata_t, ptr }
%struct.libraw_image_sizes_t = type { i16, i16, i16, i16, i16, i16, i16, i16, i32, double, i32, [8 x [4 x i32]], i16, [2 x %struct.libraw_raw_inset_crop_t] }
%struct.libraw_raw_inset_crop_t = type { i16, i16, i16, i16 }
%struct.libraw_iparams_t = type { [4 x i8], [64 x i8], [64 x i8], [64 x i8], [64 x i8], [64 x i8], i32, i32, i32, i32, i32, i32, [6 x [6 x i8]], [6 x [6 x i8]], [5 x i8], i32, ptr }
%struct.libraw_lensinfo_t = type { float, float, float, float, float, [128 x i8], [128 x i8], [128 x i8], [128 x i8], i16, %struct.libraw_nikonlens_t, %struct.libraw_dnglens_t, %struct.libraw_makernotes_lens_t }
%struct.libraw_nikonlens_t = type { float, i8, i8, i8, i8 }
%struct.libraw_dnglens_t = type { float, float, float, float }
%struct.libraw_makernotes_lens_t = type { i64, [128 x i8], i16, i16, i64, i16, i16, [64 x i8], i16, [16 x i8], [16 x i8], float, float, float, float, float, float, float, float, float, float, float, float, float, float, float, i64, [128 x i8], i64, [128 x i8], i64, [128 x i8], i16, float }
%struct.libraw_makernotes_t = type { %struct.libraw_canon_makernotes_t, %struct.libraw_nikon_makernotes_t, %struct.libraw_hasselblad_makernotes_t, %struct.libraw_fuji_info_t, %struct.libraw_olympus_makernotes_t, %struct.libraw_sony_info_t, %struct.libraw_kodak_makernotes_t, %struct.libraw_panasonic_makernotes_t, %struct.libraw_pentax_makernotes_t, %struct.libraw_p1_makernotes_t, %struct.libraw_ricoh_makernotes_t, %struct.libraw_samsung_makernotes_t, %struct.libraw_metadata_common_t }
%struct.libraw_canon_makernotes_t = type { i32, i32, i32, i32, [4 x i32], i32, [4 x i32], i16, i16, i8, i16, i16, i16, i16, i16, i16, i16, i16, i16, i16, i16, i16, i16, i32, float, i16, i16, i16, i32, i16, i32, i32, i16, i32, %struct.libraw_area_t, %struct.libraw_area_t, %struct.libraw_area_t, %struct.libraw_area_t, %struct.libraw_area_t, [2 x i16] }
%struct.libraw_area_t = type { i16, i16, i16, i16 }
%struct.libraw_nikon_makernotes_t = type { double, i16, i16, [7 x i8], i8, i8, [13 x i8], [20 x i8], [4 x i8], [4 x i8], [4 x i8], i8, i8, i8, i8, i8, [2 x i8], i8, i8, i8, i8, i8, [4 x i8], [4 x i8], i8, i16, i32, i32, i32, i32, [4 x double], i8, i8, i8, i32, i32, i32, i8, [4 x i16], i16, %struct.libraw_sensor_highspeed_crop_t, i16, i16, i16, i32, [20 x i8], [20 x i8], i32, i16, double, double, double }
%struct.libraw_sensor_highspeed_crop_t = type { i16, i16, i16, i16 }
%struct.libraw_hasselblad_makernotes_t = type { i32, double, [8 x i8], [64 x i8], [64 x i8], i32, i32, i32, i32, [32 x i8], [64 x i8], i32, [2 x i32], [2 x i32], [4 x [3 x double]] }
%struct.libraw_fuji_info_t = type { float, i16, i16, i16, i16, i16, i16, i16, i16, [33 x i8], [33 x i8], float, i16, i16, [2 x i16], i16, i32, i32, i16, [3 x i16], i16, i16, i16, i16, i16, i32, i16, [13 x i8], [5 x i8], [5 x i8], i32, i16, i32, i16, [9 x i16], [32 x i32], i32, i32, i32, [2 x float], i32 }
%struct.libraw_olympus_makernotes_t = type { [6 x i8], i16, [2 x i32], [5 x i16], i16, [2 x i16], i16, i16, [64 x i32], [5 x double], i16, i8, [3 x i16], [3 x i32], i16, i16, i16, i16, double, [4 x i16], [2 x i32], i8, i32, i16, i16 }
%struct.libraw_sony_info_t = type { i16, i8, i8, i32, i8, i32, i8, i8, i16, [2 x i16], i8, i8, i16, [10 x i8], i8, i8, [4 x i16], i16, i8, i8, i8, i16, i32, i16, [2 x i16], i16, i16, i16, i16, i16, i16, i16, i32, float, i16, i32, i32, i16, [20 x i8], i32, i16, i32, i8, i8, i16, i16, i16, i16, i16, i16, i16, i16, i16, i32, i16, [16 x i8], float }
%struct.libraw_kodak_makernotes_t = type { i16, i16, i16, i16, i16, i16, [3 x [3 x float]], [3 x [3 x float]], [3 x [3 x float]], [3 x [3 x float]], [3 x [3 x float]], [3 x [3 x float]], i16, i16, i16, i16, float, float }
%struct.libraw_panasonic_makernotes_t = type { i16, i16, [8 x float], i32, float, [3 x i32], i16, i16, i32, i32 }
%struct.libraw_pentax_makernotes_t = type { [4 x i8], [2 x i16], [2 x i16], i16, i32, i32, i16, i16, i8, i8, i16 }
%struct.libraw_p1_makernotes_t = type { [64 x i8], [64 x i8], [256 x i8], [64 x i8] }
%struct.libraw_ricoh_makernotes_t = type { i16, [2 x i32], [2 x i32], i16, i32, i32, i32, i32, i16, i16, i16, i16, i16, i16, double, double }
%struct.libraw_samsung_makernotes_t = type { [4 x i32], [4 x i32], [2 x i32], [11 x i32], double, i32, [32 x i8] }
%struct.libraw_metadata_common_t = type { float, float, float, float, float, float, float, float, float, float, float, float, float, float, float, float, i16, [128 x i8], float, [4 x %struct.libraw_afinfo_item_t], i32 }
%struct.libraw_afinfo_item_t = type { i32, i16, i32, i32, ptr }
%struct.libraw_shootinginfo_t = type { i16, i16, i16, i16, i16, i16, i16, [64 x i8], [64 x i8] }
%struct.libraw_output_params_t = type { [4 x i32], [4 x i32], [4 x double], [6 x double], [4 x float], float, float, i32, i32, i32, i32, i32, i32, i32, ptr, ptr, ptr, ptr, i32, i32, i32, i32, i32, i32, [4 x i32], i32, i32, float, float, i32, i32, i32, i32, i32, i32, i32, i32, float, float, i32, i32 }
%struct.libraw_raw_unpack_params_t = type { i32, i32, i32, i32, i32, i32, i32, float, [5 x i8], ptr }
%struct.libraw_colordata_t = type { [65536 x i16], [4104 x i32], i32, i32, i32, [4 x i64], float, float, [8 x [8 x i16]], [4 x float], [4 x float], [3 x [4 x float]], [3 x [4 x float]], [3 x [4 x float]], [4 x [3 x float]], %struct.ph1_t, float, float, [64 x i8], [64 x i8], [64 x i8], [64 x i8], [17 x i8], [64 x i8], ptr, i32, [8 x i32], [2 x %struct.libraw_dng_color_t], %struct.libraw_dng_levels_t, [256 x [4 x i32]], [64 x [5 x float]], i32, [2 x %struct.libraw_P1_color_t], i32, i32 }
%struct.ph1_t = type { i32, i32, i32, i32, i32, i32, i32, i32, float }
%struct.libraw_dng_color_t = type { i32, i16, [4 x [4 x float]], [4 x [3 x float]], [3 x [4 x float]] }
%struct.libraw_dng_levels_t = type { i32, [4104 x i32], i32, [4104 x float], float, [4 x i32], [4 x i16], [4 x float], i32, [4 x float], [4 x float], float, float }
%struct.libraw_P1_color_t = type { [9 x float] }
%struct.libraw_imgother_t = type { float, float, float, float, i64, i32, [32 x i32], %struct.libraw_gps_info_t, [512 x i8], [64 x i8], [4 x float] }
%struct.libraw_gps_info_t = type { [3 x float], [3 x float], [3 x float], float, i8, i8, i8, i8, i8 }
%struct.libraw_thumbnail_t = type { i32, i16, i16, i32, i32, ptr }
%struct.libraw_thumbnail_list_t = type { i32, [8 x %struct.libraw_thumbnail_item_t] }
%struct.libraw_thumbnail_item_t = type { i32, i16, i16, i16, i32, i32, i64 }
%struct.libraw_rawdata_t = type { ptr, ptr, ptr, ptr, ptr, ptr, ptr, ptr, ptr, %struct.libraw_iparams_t, %struct.libraw_image_sizes_t, %struct.libraw_internal_output_params_t, %struct.libraw_colordata_t }
%struct.libraw_internal_output_params_t = type { i32, i32, i32, i16, i16 }
%struct.libraw_internal_data_t = type { %struct.internal_data_t, %struct.libraw_internal_output_params_t, %struct.output_data_t, %struct.identify_data_t, %struct.unpacker_data_t }
%struct.internal_data_t = type { ptr, ptr, i32, ptr, i64, i64, [4 x i32] }
%struct.output_data_t = type { ptr, ptr }
%struct.identify_data_t = type { i32, i64, i64, i32, i32, i32 }
%struct.unpacker_data_t = type { i16, [4 x i16], [3 x i16], i32, i64, i64, i64, i64, i64, i64, i32, i32, i32, i32, i32, i32, i32, i32, i32, i32, i32, i32, i32, i32, i32, i32, i32, i64, i32, i32, i32, i32, i32, i32, i32, i32, i32, %struct.pana8_tags_t, [16 x %struct.crx_data_header_t], i32, i32, i16, i16, i32, i32, i32, i32, i32, i32, i32, [20 x i32], i16 }
%struct.pana8_tags_t = type { [6 x i32], [6 x i16], i16, [4 x i16], [17 x i16], [17 x i16], [17 x i16], i16, i16, [5 x i64], [5 x i16], [5 x i32], [5 x i16], [5 x i16] }
%struct.crx_data_header_t = type { i32, i32, i32, i32, i32, i32, i32, i32, i32, i32, i32, i32, i32, i32, i32, i64, i32, ptr, i32, i32, i32, ptr, i32, ptr }
%struct.decode = type { [2 x ptr], i32 }
%struct.tiff_ifd_t = type { i32, i32, i32, i32, i32, i32, i32, i32, i32, i32, i32, i32, i32, i32, i32, ptr, i32, ptr, i32, i32, i32, i32, i32, i32, i32, float, i64, i64, i32, [2 x %struct.libraw_dng_color_t], %struct.libraw_dng_levels_t, i32 }
%class.libraw_memmgr = type <{ ptr, i32, [4 x i8] }>
%struct.libraw_callbacks_t = type { ptr, ptr, ptr, ptr, ptr, ptr, ptr, ptr, ptr, ptr, ptr, ptr, ptr, ptr, ptr, ptr, ptr }

@.str = private unnamed_addr constant [4 x i8] c"III\00", align 1
@.str.1 = private unnamed_addr constant [3 x i8] c"II\00", align 1

; Function Attrs: inlinehint mustprogress nounwind willreturn memory(read) uwtable
define available_externally i32 @atoi(ptr noundef nonnull %0) #3 {
  %2 = alloca ptr, align 8
  store ptr %0, ptr %2, align 8, !tbaa !19
  %3 = load ptr, ptr %2, align 8, !tbaa !19
  %4 = call i64 @strtol(ptr noundef %3, ptr noundef null, i32 noundef 10) #8
  %5 = trunc i64 %4 to i32
  ret i32 %5
}

; Function Attrs: mustprogress nounwind uwtable
define void @_ZN6LibRaw18process_Hassy_LensEi(ptr noundef nonnull align 8 dereferenceable(767680) %0, i32 noundef %1) #0 align 2 {
  %3 = alloca ptr, align 8
  %4 = alloca i32, align 4
  %5 = alloca ptr, align 8
  %6 = alloca i32, align 4
  %7 = alloca ptr, align 8
  %8 = alloca i32, align 4
  store ptr %0, ptr %3, align 8, !tbaa !6
  store i32 %1, ptr %4, align 4, !tbaa !11
  %9 = load ptr, ptr %3, align 8
  call void @llvm.lifetime.start.p0(i64 8, ptr %5) #8
  call void @llvm.lifetime.start.p0(i64 4, ptr %6) #8
  call void @llvm.lifetime.start.p0(i64 8, ptr %7) #8
  %10 = getelementptr inbounds nuw %class.LibRaw, ptr %9, i32 0, i32 1
  %11 = getelementptr inbounds nuw %struct.libraw_data_t, ptr %10, i32 0, i32 3
  %12 = getelementptr inbounds nuw %struct.libraw_lensinfo_t, ptr %11, i32 0, i32 6
  %13 = getelementptr inbounds [128 x i8], ptr %12, i64 0, i64 0
  %14 = call noundef ptr @strchr(ptr noundef %13, i32 noundef 32) #9
  store ptr %14, ptr %7, align 8, !tbaa !19
  %15 = load ptr, ptr %7, align 8, !tbaa !19
  %16 = icmp ne ptr %15, null
  br i1 %16, label %18, label %17

17:                                               ; preds = %2
  store i32 1, ptr %8, align 4
  br label %158

18:                                               ; preds = %2
  %19 = load ptr, ptr %7, align 8, !tbaa !19
  %20 = getelementptr inbounds i8, ptr %19, i64 1
  %21 = call i32 @atoi(ptr noundef %20) #9
  store i32 %21, ptr %6, align 4, !tbaa !11
  %22 = load i32, ptr %6, align 4, !tbaa !11
  %23 = icmp ne i32 %22, 0
  br i1 %23, label %25, label %24

24:                                               ; preds = %18
  store i32 1, ptr %8, align 4
  br label %158

25:                                               ; preds = %18
  %26 = load i32, ptr %4, align 4, !tbaa !11
  %27 = icmp eq i32 %26, 14
  br i1 %27, label %28, label %59

28:                                               ; preds = %25
  %29 = getelementptr inbounds nuw %class.LibRaw, ptr %9, i32 0, i32 1
  %30 = getelementptr inbounds nuw %struct.libraw_data_t, ptr %29, i32 0, i32 3
  %31 = getelementptr inbounds nuw %struct.libraw_lensinfo_t, ptr %30, i32 0, i32 6
  %32 = getelementptr inbounds [128 x i8], ptr %31, i64 0, i64 2
  %33 = load i8, ptr %32, align 2, !tbaa !20
  %34 = sext i8 %33 to i32
  %35 = icmp eq i32 %34, 32
  br i1 %35, label %36, label %45

36:                                               ; preds = %28
  %37 = load i32, ptr %4, align 4, !tbaa !11
  %38 = sext i32 %37 to i64
  %39 = mul i64 %38, 100000000
  %40 = add i64 %39, 10000000
  %41 = getelementptr inbounds nuw %class.LibRaw, ptr %9, i32 0, i32 1
  %42 = getelementptr inbounds nuw %struct.libraw_data_t, ptr %41, i32 0, i32 3
  %43 = getelementptr inbounds nuw %struct.libraw_lensinfo_t, ptr %42, i32 0, i32 12
  %44 = getelementptr inbounds nuw %struct.libraw_makernotes_lens_t, ptr %43, i32 0, i32 0
  store i64 %40, ptr %44, align 8, !tbaa !21
  br label %54

45:                                               ; preds = %28
  %46 = load i32, ptr %4, align 4, !tbaa !11
  %47 = sext i32 %46 to i64
  %48 = mul i64 %47, 100000000
  %49 = add i64 %48, 20000000
  %50 = getelementptr inbounds nuw %class.LibRaw, ptr %9, i32 0, i32 1
  %51 = getelementptr inbounds nuw %struct.libraw_data_t, ptr %50, i32 0, i32 3
  %52 = getelementptr inbounds nuw %struct.libraw_lensinfo_t, ptr %51, i32 0, i32 12
  %53 = getelementptr inbounds nuw %struct.libraw_makernotes_lens_t, ptr %52, i32 0, i32 0
  store i64 %49, ptr %53, align 8, !tbaa !21
  br label %54

54:                                               ; preds = %45, %36
  %55 = getelementptr inbounds nuw %class.LibRaw, ptr %9, i32 0, i32 1
  %56 = getelementptr inbounds nuw %struct.libraw_data_t, ptr %55, i32 0, i32 3
  %57 = getelementptr inbounds nuw %struct.libraw_lensinfo_t, ptr %56, i32 0, i32 12
  %58 = getelementptr inbounds nuw %struct.libraw_makernotes_lens_t, ptr %57, i32 0, i32 2
  store i16 11, ptr %58, align 8, !tbaa !81
  br label %76

59:                                               ; preds = %25
  %60 = load i32, ptr %4, align 4, !tbaa !11
  %61 = icmp eq i32 %60, 16
  br i1 %61, label %62, label %74

62:                                               ; preds = %59
  %63 = getelementptr inbounds nuw %class.LibRaw, ptr %9, i32 0, i32 1
  %64 = getelementptr inbounds nuw %struct.libraw_data_t, ptr %63, i32 0, i32 3
  %65 = getelementptr inbounds nuw %struct.libraw_lensinfo_t, ptr %64, i32 0, i32 12
  %66 = getelementptr inbounds nuw %struct.libraw_makernotes_lens_t, ptr %65, i32 0, i32 2
  store i16 9, ptr %66, align 8, !tbaa !81
  %67 = load i32, ptr %4, align 4, !tbaa !11
  %68 = sext i32 %67 to i64
  %69 = mul i64 %68, 100000000
  %70 = getelementptr inbounds nuw %class.LibRaw, ptr %9, i32 0, i32 1
  %71 = getelementptr inbounds nuw %struct.libraw_data_t, ptr %70, i32 0, i32 3
  %72 = getelementptr inbounds nuw %struct.libraw_lensinfo_t, ptr %71, i32 0, i32 12
  %73 = getelementptr inbounds nuw %struct.libraw_makernotes_lens_t, ptr %72, i32 0, i32 0
  store i64 %69, ptr %73, align 8, !tbaa !21
  br label %75

74:                                               ; preds = %59
  store i32 1, ptr %8, align 4
  br label %158

75:                                               ; preds = %62
  br label %76

76:                                               ; preds = %75, %54
  %77 = load i32, ptr %4, align 4, !tbaa !11
  %78 = trunc i32 %77 to i16
  %79 = getelementptr inbounds nuw %class.LibRaw, ptr %9, i32 0, i32 1
  %80 = getelementptr inbounds nuw %struct.libraw_data_t, ptr %79, i32 0, i32 3
  %81 = getelementptr inbounds nuw %struct.libraw_lensinfo_t, ptr %80, i32 0, i32 12
  %82 = getelementptr inbounds nuw %struct.libraw_makernotes_lens_t, ptr %81, i32 0, i32 3
  store i16 %78, ptr %82, align 2, !tbaa !82
  %83 = load i32, ptr %6, align 4, !tbaa !11
  %84 = sext i32 %83 to i64
  %85 = mul i64 %84, 10000
  %86 = getelementptr inbounds nuw %class.LibRaw, ptr %9, i32 0, i32 1
  %87 = getelementptr inbounds nuw %struct.libraw_data_t, ptr %86, i32 0, i32 3
  %88 = getelementptr inbounds nuw %struct.libraw_lensinfo_t, ptr %87, i32 0, i32 12
  %89 = getelementptr inbounds nuw %struct.libraw_makernotes_lens_t, ptr %88, i32 0, i32 0
  %90 = load i64, ptr %89, align 8, !tbaa !21
  %91 = add i64 %90, %85
  store i64 %91, ptr %89, align 8, !tbaa !21
  %92 = getelementptr inbounds nuw %class.LibRaw, ptr %9, i32 0, i32 1
  %93 = getelementptr inbounds nuw %struct.libraw_data_t, ptr %92, i32 0, i32 3
  %94 = getelementptr inbounds nuw %struct.libraw_lensinfo_t, ptr %93, i32 0, i32 6
  %95 = getelementptr inbounds [128 x i8], ptr %94, i64 0, i64 0
  %96 = call noundef ptr @strchr(ptr noundef %95, i32 noundef 45) #9
  store ptr %96, ptr %5, align 8, !tbaa !19
  %97 = icmp ne ptr %96, null
  br i1 %97, label %98, label %114

98:                                               ; preds = %76
  %99 = getelementptr inbounds nuw %class.LibRaw, ptr %9, i32 0, i32 1
  %100 = getelementptr inbounds nuw %struct.libraw_data_t, ptr %99, i32 0, i32 3
  %101 = getelementptr inbounds nuw %struct.libraw_lensinfo_t, ptr %100, i32 0, i32 12
  %102 = getelementptr inbounds nuw %struct.libraw_makernotes_lens_t, ptr %101, i32 0, i32 8
  store i16 2, ptr %102, align 4, !tbaa !83
  %103 = load ptr, ptr %5, align 8, !tbaa !19
  %104 = getelementptr inbounds i8, ptr %103, i64 1
  %105 = call i32 @atoi(ptr noundef %104) #9
  %106 = sext i32 %105 to i64
  %107 = mul i64 %106, 10
  %108 = getelementptr inbounds nuw %class.LibRaw, ptr %9, i32 0, i32 1
  %109 = getelementptr inbounds nuw %struct.libraw_data_t, ptr %108, i32 0, i32 3
  %110 = getelementptr inbounds nuw %struct.libraw_lensinfo_t, ptr %109, i32 0, i32 12
  %111 = getelementptr inbounds nuw %struct.libraw_makernotes_lens_t, ptr %110, i32 0, i32 0
  %112 = load i64, ptr %111, align 8, !tbaa !21
  %113 = add i64 %112, %107
  store i64 %113, ptr %111, align 8, !tbaa !21
  br label %128

114:                                              ; preds = %76
  %115 = getelementptr inbounds nuw %class.LibRaw, ptr %9, i32 0, i32 1
  %116 = getelementptr inbounds nuw %struct.libraw_data_t, ptr %115, i32 0, i32 3
  %117 = getelementptr inbounds nuw %struct.libraw_lensinfo_t, ptr %116, i32 0, i32 12
  %118 = getelementptr inbounds nuw %struct.libraw_makernotes_lens_t, ptr %117, i32 0, i32 8
  store i16 1, ptr %118, align 4, !tbaa !83
  %119 = load i32, ptr %6, align 4, !tbaa !11
  %120 = sext i32 %119 to i64
  %121 = mul i64 %120, 10
  %122 = getelementptr inbounds nuw %class.LibRaw, ptr %9, i32 0, i32 1
  %123 = getelementptr inbounds nuw %struct.libraw_data_t, ptr %122, i32 0, i32 3
  %124 = getelementptr inbounds nuw %struct.libraw_lensinfo_t, ptr %123, i32 0, i32 12
  %125 = getelementptr inbounds nuw %struct.libraw_makernotes_lens_t, ptr %124, i32 0, i32 0
  %126 = load i64, ptr %125, align 8, !tbaa !21
  %127 = add i64 %126, %121
  store i64 %127, ptr %125, align 8, !tbaa !21
  br label %128

128:                                              ; preds = %114, %98
  %129 = getelementptr inbounds nuw %class.LibRaw, ptr %9, i32 0, i32 1
  %130 = getelementptr inbounds nuw %struct.libraw_data_t, ptr %129, i32 0, i32 3
  %131 = getelementptr inbounds nuw %struct.libraw_lensinfo_t, ptr %130, i32 0, i32 6
  %132 = getelementptr inbounds [128 x i8], ptr %131, i64 0, i64 0
  %133 = call noundef ptr @strstr(ptr noundef %132, ptr noundef @.str) #9
  %134 = icmp ne ptr %133, null
  br i1 %134, label %135, label %142

135:                                              ; preds = %128
  %136 = getelementptr inbounds nuw %class.LibRaw, ptr %9, i32 0, i32 1
  %137 = getelementptr inbounds nuw %struct.libraw_data_t, ptr %136, i32 0, i32 3
  %138 = getelementptr inbounds nuw %struct.libraw_lensinfo_t, ptr %137, i32 0, i32 12
  %139 = getelementptr inbounds nuw %struct.libraw_makernotes_lens_t, ptr %138, i32 0, i32 0
  %140 = load i64, ptr %139, align 8, !tbaa !21
  %141 = add i64 %140, 3
  store i64 %141, ptr %139, align 8, !tbaa !21
  br label %157

142:                                              ; preds = %128
  %143 = getelementptr inbounds nuw %class.LibRaw, ptr %9, i32 0, i32 1
  %144 = getelementptr inbounds nuw %struct.libraw_data_t, ptr %143, i32 0, i32 3
  %145 = getelementptr inbounds nuw %struct.libraw_lensinfo_t, ptr %144, i32 0, i32 6
  %146 = getelementptr inbounds [128 x i8], ptr %145, i64 0, i64 0
  %147 = call noundef ptr @strstr(ptr noundef %146, ptr noundef @.str.1) #9
  %148 = icmp ne ptr %147, null
  br i1 %148, label %149, label %156

149:                                              ; preds = %142
  %150 = getelementptr inbounds nuw %class.LibRaw, ptr %9, i32 0, i32 1
  %151 = getelementptr inbounds nuw %struct.libraw_data_t, ptr %150, i32 0, i32 3
  %152 = getelementptr inbounds nuw %struct.libraw_lensinfo_t, ptr %151, i32 0, i32 12
  %153 = getelementptr inbounds nuw %struct.libraw_makernotes_lens_t, ptr %152, i32 0, i32 0
  %154 = load i64, ptr %153, align 8, !tbaa !21
  %155 = add i64 %154, 2
  store i64 %155, ptr %153, align 8, !tbaa !21
  br label %156

156:                                              ; preds = %149, %142
  br label %157

157:                                              ; preds = %156, %135
  store i32 0, ptr %8, align 4
  br label %158

158:                                              ; preds = %157, %74, %24, %17
  call void @llvm.lifetime.end.p0(i64 8, ptr %7) #8
  call void @llvm.lifetime.end.p0(i64 4, ptr %6) #8
  call void @llvm.lifetime.end.p0(i64 8, ptr %5) #8
  %159 = load i32, ptr %8, align 4
  switch i32 %159, label %161 [
    i32 0, label %160
    i32 1, label %160
  ]

160:                                              ; preds = %158, %158
  ret void

161:                                              ; preds = %158
  unreachable
}