; Function Attrs: mustprogress nofree nounwind willreturn uwtable
define void @_ZN6LibRaw18process_Hassy_LensEi(ptr noundef nonnull align 8 dereferenceable(767680) %0, i32 noundef %1) local_unnamed_addr #2 align 2 {
  %3 = getelementptr inbounds nuw i8, ptr %0, i64 788
  %4 = tail call noundef ptr @strchr(ptr noundef nonnull dereferenceable(1) %3, i32 noundef 32) #12
  %.not = icmp eq ptr %4, null
  br i1 %.not, label %40, label %5

5:                                                ; preds = %2
  %6 = getelementptr inbounds nuw i8, ptr %4, i64 1
  %7 = tail call i64 @strtol(ptr noundef nonnull captures(none) %6, ptr noundef null, i32 noundef 10) #13
  %8 = and i64 %7, 4294967295
  %.not15 = icmp eq i64 %8, 0
  br i1 %.not15, label %40, label %9

9:                                                ; preds = %5
  switch i32 %1, label %40 [
    i32 14, label %10
    i32 16, label %14
  ]

10:                                               ; preds = %9
  %11 = getelementptr inbounds nuw i8, ptr %0, i64 790
  %12 = load i8, ptr %11, align 2, !tbaa !16
  %13 = icmp eq i8 %12, 32
  %spec.select = select i1 %13, i64 1410000000, i64 1420000000
  br label %14

14:                                               ; preds = %9, %10
  %.sink = phi i16 [ 11, %10 ], [ 9, %9 ]
  %15 = phi i64 [ %spec.select, %10 ], [ 1600000000, %9 ]
  %16 = getelementptr inbounds nuw i8, ptr %0, i64 1336
  store i16 %.sink, ptr %16, align 8, !tbaa !17
  %17 = trunc i32 %1 to i16
  %18 = getelementptr inbounds nuw i8, ptr %0, i64 1200
  %19 = getelementptr inbounds nuw i8, ptr %0, i64 1338
  store i16 %17, ptr %19, align 2, !tbaa !77
  %sext = shl i64 %7, 32
  %20 = ashr exact i64 %sext, 32
  %21 = mul nsw i64 %20, 10000
  %22 = add nsw i64 %15, %21
  store i64 %22, ptr %18, align 8, !tbaa !78
  %23 = tail call noundef ptr @strchr(ptr noundef nonnull dereferenceable(1) %3, i32 noundef 45) #12
  %.not16 = icmp eq ptr %23, null
  %24 = getelementptr inbounds nuw i8, ptr %0, i64 1420
  br i1 %.not16, label %32, label %25

25:                                               ; preds = %14
  store i16 2, ptr %24, align 4, !tbaa !79
  %26 = getelementptr inbounds nuw i8, ptr %23, i64 1
  %27 = tail call i64 @strtol(ptr noundef nonnull captures(none) %26, ptr noundef null, i32 noundef 10) #13
  %sext19 = shl i64 %27, 32
  %28 = ashr exact i64 %sext19, 32
  %29 = mul nsw i64 %28, 10
  %30 = load i64, ptr %18, align 8, !tbaa !78
  %31 = add i64 %29, %30
  br label %35

32:                                               ; preds = %14
  store i16 1, ptr %24, align 4, !tbaa !79
  %33 = mul nsw i64 %20, 10
  %34 = add nsw i64 %22, %33
  br label %35

35:                                               ; preds = %32, %25
  %storemerge = phi i64 [ %34, %32 ], [ %31, %25 ]
  store i64 %storemerge, ptr %18, align 8, !tbaa !78
  %36 = tail call noundef ptr @strstr(ptr noundef nonnull dereferenceable(1) %3, ptr noundef nonnull dereferenceable(1) @.str) #12
  %.not17 = icmp eq ptr %36, null
  br i1 %.not17, label %37, label %.sink.split

37:                                               ; preds = %35
  %38 = tail call noundef ptr @strstr(ptr noundef nonnull dereferenceable(1) %3, ptr noundef nonnull dereferenceable(1) @.str.1) #12
  %.not18 = icmp eq ptr %38, null
  br i1 %.not18, label %40, label %.sink.split

.sink.split:                                      ; preds = %37, %35
  %.sink22 = phi i64 [ 3, %35 ], [ 2, %37 ]
  %39 = add i64 %storemerge, %.sink22
  store i64 %39, ptr %18, align 8, !tbaa !78
  br label %40

40:                                               ; preds = %.sink.split, %37, %9, %5, %2
  ret void
}